target datalayout = "e-m:e-p270:32:32-p271:32:32-p272:64:64-i64:64-i128:128-f80:128-n8:16:32:64-S128"
target triple = "x86_64-pc-linux-gnu"

%"class.cmDebugger::cmDebuggerPipeConnection_POSIX" = type { %"class.dap::ReaderWriter", %"class.cmDebugger::cmDebuggerConnection", %"class.std::enable_shared_from_this", %"class.std::promise", %"class.std::__cxx11::basic_string", %struct.sockaddr_un, i32, i32 }
%"class.dap::ReaderWriter" = type { %"class.dap::Reader", %"class.dap::Writer" }
%"class.dap::Reader" = type { %"class.dap::Closable" }
%"class.dap::Closable" = type { ptr }
%"class.dap::Writer" = type { %"class.dap::Closable" }
%"class.cmDebugger::cmDebuggerConnection" = type { ptr }
%"class.std::enable_shared_from_this" = type { %"class.std::weak_ptr" }
%"class.std::weak_ptr" = type { %"class.std::__weak_ptr" }
%"class.std::__weak_ptr" = type { ptr, %"class.std::__weak_count" }
%"class.std::__weak_count" = type { ptr }
%"class.std::promise" = type { %"class.std::shared_ptr", %"class.std::unique_ptr" }
%"class.std::shared_ptr" = type { %"class.std::__shared_ptr" }
%"class.std::__shared_ptr" = type { ptr, %"class.std::__shared_count" }
%"class.std::__shared_count" = type { ptr }
%"class.std::unique_ptr" = type { %"struct.std::__uniq_ptr_data" }
%"struct.std::__uniq_ptr_data" = type { %"class.std::__uniq_ptr_impl" }
%"class.std::__uniq_ptr_impl" = type { %"class.std::tuple" }
%"class.std::tuple" = type { %"struct.std::_Tuple_impl" }
%"struct.std::_Tuple_impl" = type { %"struct.std::_Head_base.1" }
%"struct.std::_Head_base.1" = type { ptr }
%"class.std::__cxx11::basic_string" = type { %"struct.std::__cxx11::basic_string<char>::_Alloc_hider", i64, %union.anon }
%"struct.std::__cxx11::basic_string<char>::_Alloc_hider" = type { ptr }
%union.anon = type { i64, [8 x i8] }
%struct.sockaddr_un = type { i16, [108 x i8] }

; Function Attrs: mustprogress uwtable
define dso_local void @_ZN10cmDebugger30cmDebuggerPipeConnection_POSIX12close_listenEv(ptr noundef nonnull align 8 dereferenceable(216) %0) #0 align 2 {
  %2 = alloca ptr, align 8
  store ptr %0, ptr %2, align 8
  %3 = load ptr, ptr %2, align 8
  %4 = getelementptr inbounds %"class.cmDebugger::cmDebuggerPipeConnection_POSIX", ptr %3, i32 0, i32 5
  %5 = getelementptr inbounds %struct.sockaddr_un, ptr %4, i32 0, i32 1
  %6 = getelementptr inbounds [108 x i8], ptr %5, i64 0, i64 0
  %7 = call i64 @strlen(ptr noundef %6) #21
  %8 = icmp ugt i64 %7, 0
  br i1 %8, label %9, label %17

9:                                                ; preds = %1
  %10 = getelementptr inbounds %"class.cmDebugger::cmDebuggerPipeConnection_POSIX", ptr %3, i32 0, i32 5
  %11 = getelementptr inbounds %struct.sockaddr_un, ptr %10, i32 0, i32 1
  %12 = getelementptr inbounds [108 x i8], ptr %11, i64 0, i64 0
  %13 = call i32 @unlink(ptr noundef %12) #16
  %14 = getelementptr inbounds %"class.cmDebugger::cmDebuggerPipeConnection_POSIX", ptr %3, i32 0, i32 5
  %15 = getelementptr inbounds %struct.sockaddr_un, ptr %14, i32 0, i32 1
  %16 = getelementptr inbounds [108 x i8], ptr %15, i64 0, i64 0
  store i8 0, ptr %16, align 2
  br label %17

17:                                               ; preds = %9, %1
  %18 = getelementptr inbounds %"class.cmDebugger::cmDebuggerPipeConnection_POSIX", ptr %3, i32 0, i32 6
  %19 = load i32, ptr %18, align 8
  %20 = call i32 @close(i32 noundef %19)
  %21 = getelementptr inbounds %"class.cmDebugger::cmDebuggerPipeConnection_POSIX", ptr %3, i32 0, i32 6
  store i32 -1, ptr %21, align 8
  ret void
}

; Function Attrs: mustprogress uwtable
define dso_local void @_ZN10cmDebugger30cmDebuggerPipeConnection_POSIX17WaitForConnectionEv(ptr noundef nonnull align 8 dereferenceable(216) %0) unnamed_addr #0 align 2 {
  %2 = alloca ptr, align 8
  %3 = alloca %struct.sockaddr_un, align 2
  %4 = alloca i32, align 4
  store ptr %0, ptr %2, align 8
  %5 = load ptr, ptr %2, align 8
  store i32 110, ptr %4, align 4
  %6 = getelementptr inbounds %"class.cmDebugger::cmDebuggerPipeConnection_POSIX", ptr %5, i32 0, i32 6
  %7 = load i32, ptr %6, align 8
  %8 = call i32 @accept(i32 noundef %7, ptr noundef %3, ptr noundef %4)
  %9 = getelementptr inbounds %"class.cmDebugger::cmDebuggerPipeConnection_POSIX", ptr %5, i32 0, i32 7
  store i32 %8, ptr %9, align 4
  %10 = getelementptr inbounds %"class.cmDebugger::cmDebuggerPipeConnection_POSIX", ptr %5, i32 0, i32 7
  %11 = load i32, ptr %10, align 4
  %12 = icmp slt i32 %11, 0
  br i1 %12, label %13, label %17

13:                                               ; preds = %1
  %14 = load ptr, ptr %5, align 8
  %15 = getelementptr inbounds ptr, ptr %14, i64 3
  %16 = load ptr, ptr %15, align 8
  call void %16(ptr noundef nonnull align 8 dereferenceable(216) %5)
  br label %18

17:                                               ; preds = %1
  call void @_ZN10cmDebugger30cmDebuggerPipeConnection_POSIX12close_listenEv(ptr noundef nonnull align 8 dereferenceable(216) %5)
  br label %18

18:                                               ; preds = %17, %13
  ret void
}