; Function Attrs: mustprogress uwtable
define dso_local void @_ZN10cmDebugger30cmDebuggerPipeConnection_POSIX17WaitForConnectionEv(ptr noundef nonnull align 8 dereferenceable(216) %0) unnamed_addr #0 align 2 {
  %2 = alloca %struct.sockaddr_un, align 2
  %3 = alloca i32, align 4
  store i32 110, ptr %3, align 4
  %4 = getelementptr inbounds i8, ptr %0, i64 208
  %5 = load i32, ptr %4, align 8
  %6 = call i32 @accept(i32 noundef %5, ptr noundef nonnull %2, ptr noundef nonnull %3)
  %7 = getelementptr inbounds i8, ptr %0, i64 212
  store i32 %6, ptr %7, align 4
  %8 = icmp slt i32 %6, 0
  br i1 %8, label %9, label %13

9:                                                ; preds = %1
  %10 = load ptr, ptr %0, align 8
  %11 = getelementptr inbounds i8, ptr %10, i64 24
  %12 = load ptr, ptr %11, align 8
  call void %12(ptr noundef nonnull align 8 dereferenceable(216) %0)
  br label %19

13:                                               ; preds = %1
  %14 = getelementptr inbounds i8, ptr %0, i64 98
  %char0.i = load i8, ptr %14, align 2
  %.not.i = icmp eq i8 %char0.i, 0
  br i1 %.not.i, label %_ZN10cmDebugger30cmDebuggerPipeConnection_POSIX12close_listenEv.exit, label %15

15:                                               ; preds = %13
  %16 = call i32 @unlink(ptr noundef nonnull %14) #25
  store i8 0, ptr %14, align 2
  br label %_ZN10cmDebugger30cmDebuggerPipeConnection_POSIX12close_listenEv.exit

_ZN10cmDebugger30cmDebuggerPipeConnection_POSIX12close_listenEv.exit: ; preds = %13, %15
  %17 = load i32, ptr %4, align 8
  %18 = call i32 @close(i32 noundef %17)
  store i32 -1, ptr %4, align 8
  br label %19

19:                                               ; preds = %_ZN10cmDebugger30cmDebuggerPipeConnection_POSIX12close_listenEv.exit, %9
  ret void
}